target datalayout = "e-m:e-p270:32:32-p271:32:32-p272:64:64-i64:64-i128:128-f80:128-n8:16:32:64-S128"
target triple = "x86_64-pc-linux-gnu"

%"struct.url::Component" = type { i32, i32 }

; Function Attrs: mustprogress nounwind uwtable
define linkonce_odr void @_ZN3url9ComponentC2Eii(ptr noundef nonnull align 4 dereferenceable(8) %0, i32 noundef %1, i32 noundef %2) unnamed_addr #1 comdat align 2 {
  %4 = alloca ptr, align 8
  %5 = alloca i32, align 4
  %6 = alloca i32, align 4
  store ptr %0, ptr %4, align 8, !tbaa !12
  store i32 %1, ptr %5, align 4, !tbaa !17
  store i32 %2, ptr %6, align 4, !tbaa !17
  %7 = load ptr, ptr %4, align 8
  %8 = getelementptr inbounds nuw %"struct.url::Component", ptr %7, i32 0, i32 0
  %9 = load i32, ptr %5, align 4, !tbaa !17
  store i32 %9, ptr %8, align 4, !tbaa !14
  %10 = getelementptr inbounds nuw %"struct.url::Component", ptr %7, i32 0, i32 1
  %11 = load i32, ptr %6, align 4, !tbaa !17
  store i32 %11, ptr %10, align 4, !tbaa !15
  ret void
}

; Function Attrs: inlinehint mustprogress uwtable
define linkonce_odr i64 @_ZN3url9MakeRangeEii(i32 noundef %0, i32 noundef %1) #7 comdat {
  %3 = alloca %"struct.url::Component", align 4
  %4 = alloca i32, align 4
  %5 = alloca i32, align 4
  store i32 %0, ptr %4, align 4, !tbaa !17
  store i32 %1, ptr %5, align 4, !tbaa !17
  %6 = load i32, ptr %4, align 4, !tbaa !17
  %7 = load i32, ptr %5, align 4, !tbaa !17
  %8 = load i32, ptr %4, align 4, !tbaa !17
  %9 = sub nsw i32 %7, %8
  call void @_ZN3url9ComponentC2Eii(ptr noundef nonnull align 4 dereferenceable(8) %3, i32 noundef %6, i32 noundef %9)
  %10 = load i64, ptr %3, align 4
  ret i64 %10
}

; Function Attrs: mustprogress nounwind uwtable
define linkonce_odr void @_ZN3url9Component5resetEv(ptr noundef nonnull align 4 dereferenceable(8) %0) #1 comdat align 2 {
  %2 = alloca ptr, align 8
  store ptr %0, ptr %2, align 8, !tbaa !12
  %3 = load ptr, ptr %2, align 8
  %4 = getelementptr inbounds nuw %"struct.url::Component", ptr %3, i32 0, i32 0
  store i32 0, ptr %4, align 4, !tbaa !14
  %5 = getelementptr inbounds nuw %"struct.url::Component", ptr %3, i32 0, i32 1
  store i32 -1, ptr %5, align 4, !tbaa !15
  ret void
}

; Function Attrs: mustprogress uwtable
define internal void @_ZN3url12_GLOBAL__N_19ParsePathItEEvPKT_RKNS_9ComponentEPS5_S8_S8_(ptr noundef %0, ptr noundef nonnull align 4 dereferenceable(8) %1, ptr noundef %2, ptr noundef %3, ptr noundef %4) #0 {
  %6 = alloca ptr, align 8
  %7 = alloca ptr, align 8
  %8 = alloca ptr, align 8
  %9 = alloca ptr, align 8
  %10 = alloca ptr, align 8
  %11 = alloca i32, align 4
  %12 = alloca i32, align 4
  %13 = alloca i32, align 4
  %14 = alloca i32, align 4
  %15 = alloca i32, align 4
  %16 = alloca i32, align 4
  %17 = alloca %"struct.url::Component", align 4
  %18 = alloca %"struct.url::Component", align 4
  %19 = alloca %"struct.url::Component", align 4
  store ptr %0, ptr %6, align 8, !tbaa !38
  store ptr %1, ptr %7, align 8, !tbaa !12
  store ptr %2, ptr %8, align 8, !tbaa !12
  store ptr %3, ptr %9, align 8, !tbaa !12
  store ptr %4, ptr %10, align 8, !tbaa !12
  %20 = load ptr, ptr %7, align 8, !tbaa !12
  %21 = getelementptr inbounds nuw %"struct.url::Component", ptr %20, i32 0, i32 1
  %22 = load i32, ptr %21, align 4, !tbaa !15
  %23 = icmp eq i32 %22, -1
  br i1 %23, label %24, label %28

24:                                               ; preds = %5
  %25 = load ptr, ptr %8, align 8, !tbaa !12
  call void @_ZN3url9Component5resetEv(ptr noundef nonnull align 4 dereferenceable(8) %25)
  %26 = load ptr, ptr %9, align 8, !tbaa !12
  call void @_ZN3url9Component5resetEv(ptr noundef nonnull align 4 dereferenceable(8) %26)
  %27 = load ptr, ptr %10, align 8, !tbaa !12
  call void @_ZN3url9Component5resetEv(ptr noundef nonnull align 4 dereferenceable(8) %27)
  br label %111

28:                                               ; preds = %5
  call void @llvm.lifetime.start.p0(i64 4, ptr %11) #13
  %29 = load ptr, ptr %7, align 8, !tbaa !12
  %30 = getelementptr inbounds nuw %"struct.url::Component", ptr %29, i32 0, i32 0
  %31 = load i32, ptr %30, align 4, !tbaa !14
  %32 = load ptr, ptr %7, align 8, !tbaa !12
  %33 = getelementptr inbounds nuw %"struct.url::Component", ptr %32, i32 0, i32 1
  %34 = load i32, ptr %33, align 4, !tbaa !15
  %35 = add nsw i32 %31, %34
  store i32 %35, ptr %11, align 4, !tbaa !17
  call void @llvm.lifetime.start.p0(i64 4, ptr %12) #13
  store i32 -1, ptr %12, align 4, !tbaa !17
  call void @llvm.lifetime.start.p0(i64 4, ptr %13) #13
  store i32 -1, ptr %13, align 4, !tbaa !17
  call void @llvm.lifetime.start.p0(i64 4, ptr %14) #13
  %36 = load ptr, ptr %7, align 8, !tbaa !12
  %37 = getelementptr inbounds nuw %"struct.url::Component", ptr %36, i32 0, i32 0
  %38 = load i32, ptr %37, align 4, !tbaa !14
  store i32 %38, ptr %14, align 4, !tbaa !17
  br label %39

39:                                               ; preds = %67, %28
  %40 = load i32, ptr %14, align 4, !tbaa !17
  %41 = load i32, ptr %11, align 4, !tbaa !17
  %42 = icmp slt i32 %40, %41
  br i1 %42, label %44, label %43

43:                                               ; preds = %39
  call void @llvm.lifetime.end.p0(i64 4, ptr %14) #13
  br label %70

44:                                               ; preds = %39
  %45 = load ptr, ptr %6, align 8, !tbaa !38
  %46 = load i32, ptr %14, align 4, !tbaa !17
  %47 = sext i32 %46 to i64
  %48 = getelementptr inbounds i16, ptr %45, i64 %47
  %49 = load i16, ptr %48, align 2, !tbaa !40
  %50 = zext i16 %49 to i32
  switch i32 %50, label %66 [
    i32 63, label %51
    i32 35, label %60
  ]

51:                                               ; preds = %44
  %52 = load i32, ptr %13, align 4, !tbaa !17
  %53 = icmp slt i32 %52, 0
  br i1 %53, label %54, label %59

54:                                               ; preds = %51
  %55 = load i32, ptr %12, align 4, !tbaa !17
  %56 = icmp slt i32 %55, 0
  br i1 %56, label %57, label %59

57:                                               ; preds = %54
  %58 = load i32, ptr %14, align 4, !tbaa !17
  store i32 %58, ptr %12, align 4, !tbaa !17
  br label %59

59:                                               ; preds = %57, %54, %51
  br label %66

60:                                               ; preds = %44
  %61 = load i32, ptr %13, align 4, !tbaa !17
  %62 = icmp slt i32 %61, 0
  br i1 %62, label %63, label %65

63:                                               ; preds = %60
  %64 = load i32, ptr %14, align 4, !tbaa !17
  store i32 %64, ptr %13, align 4, !tbaa !17
  br label %65

65:                                               ; preds = %63, %60
  br label %66

66:                                               ; preds = %44, %65, %59
  br label %67

67:                                               ; preds = %66
  %68 = load i32, ptr %14, align 4, !tbaa !17
  %69 = add nsw i32 %68, 1
  store i32 %69, ptr %14, align 4, !tbaa !17
  br label %39, !llvm.loop !62

70:                                               ; preds = %43
  call void @llvm.lifetime.start.p0(i64 4, ptr %15) #13
  call void @llvm.lifetime.start.p0(i64 4, ptr %16) #13
  %71 = load i32, ptr %13, align 4, !tbaa !17
  %72 = icmp sge i32 %71, 0
  br i1 %72, label %73, label %80

73:                                               ; preds = %70
  %74 = load i32, ptr %13, align 4, !tbaa !17
  store i32 %74, ptr %16, align 4, !tbaa !17
  store i32 %74, ptr %15, align 4, !tbaa !17
  call void @llvm.lifetime.start.p0(i64 8, ptr %17) #13
  %75 = load i32, ptr %13, align 4, !tbaa !17
  %76 = add nsw i32 %75, 1
  %77 = load i32, ptr %11, align 4, !tbaa !17
  %78 = call i64 @_ZN3url9MakeRangeEii(i32 noundef %76, i32 noundef %77)
  store i64 %78, ptr %17, align 4
  %79 = load ptr, ptr %10, align 8, !tbaa !12
  call void @llvm.memcpy.p0.p0.i64(ptr align 4 %79, ptr align 4 %17, i64 8, i1 false), !tbaa.struct !16
  call void @llvm.lifetime.end.p0(i64 8, ptr %17) #13
  br label %83

80:                                               ; preds = %70
  %81 = load i32, ptr %11, align 4, !tbaa !17
  store i32 %81, ptr %16, align 4, !tbaa !17
  store i32 %81, ptr %15, align 4, !tbaa !17
  %82 = load ptr, ptr %10, align 8, !tbaa !12
  call void @_ZN3url9Component5resetEv(ptr noundef nonnull align 4 dereferenceable(8) %82)
  br label %83

83:                                               ; preds = %80, %73
  %84 = load i32, ptr %12, align 4, !tbaa !17
  %85 = icmp sge i32 %84, 0
  br i1 %85, label %86, label %93

86:                                               ; preds = %83
  %87 = load i32, ptr %12, align 4, !tbaa !17
  store i32 %87, ptr %15, align 4, !tbaa !17
  call void @llvm.lifetime.start.p0(i64 8, ptr %18) #13
  %88 = load i32, ptr %12, align 4, !tbaa !17
  %89 = add nsw i32 %88, 1
  %90 = load i32, ptr %16, align 4, !tbaa !17
  %91 = call i64 @_ZN3url9MakeRangeEii(i32 noundef %89, i32 noundef %90)
  store i64 %91, ptr %18, align 4
  %92 = load ptr, ptr %9, align 8, !tbaa !12
  call void @llvm.memcpy.p0.p0.i64(ptr align 4 %92, ptr align 4 %18, i64 8, i1 false), !tbaa.struct !16
  call void @llvm.lifetime.end.p0(i64 8, ptr %18) #13
  br label %95

93:                                               ; preds = %83
  %94 = load ptr, ptr %9, align 8, !tbaa !12
  call void @_ZN3url9Component5resetEv(ptr noundef nonnull align 4 dereferenceable(8) %94)
  br label %95

95:                                               ; preds = %93, %86
  %96 = load i32, ptr %15, align 4, !tbaa !17
  %97 = load ptr, ptr %7, align 8, !tbaa !12
  %98 = getelementptr inbounds nuw %"struct.url::Component", ptr %97, i32 0, i32 0
  %99 = load i32, ptr %98, align 4, !tbaa !14
  %100 = icmp ne i32 %96, %99
  br i1 %100, label %101, label %108

101:                                              ; preds = %95
  call void @llvm.lifetime.start.p0(i64 8, ptr %19) #13
  %102 = load ptr, ptr %7, align 8, !tbaa !12
  %103 = getelementptr inbounds nuw %"struct.url::Component", ptr %102, i32 0, i32 0
  %104 = load i32, ptr %103, align 4, !tbaa !14
  %105 = load i32, ptr %15, align 4, !tbaa !17
  %106 = call i64 @_ZN3url9MakeRangeEii(i32 noundef %104, i32 noundef %105)
  store i64 %106, ptr %19, align 4
  %107 = load ptr, ptr %8, align 8, !tbaa !12
  call void @llvm.memcpy.p0.p0.i64(ptr align 4 %107, ptr align 4 %19, i64 8, i1 false), !tbaa.struct !16
  call void @llvm.lifetime.end.p0(i64 8, ptr %19) #13
  br label %110

108:                                              ; preds = %95
  %109 = load ptr, ptr %8, align 8, !tbaa !12
  call void @_ZN3url9Component5resetEv(ptr noundef nonnull align 4 dereferenceable(8) %109)
  br label %110

110:                                              ; preds = %108, %101
  call void @llvm.lifetime.end.p0(i64 4, ptr %16) #13
  call void @llvm.lifetime.end.p0(i64 4, ptr %15) #13
  call void @llvm.lifetime.end.p0(i64 4, ptr %13) #13
  call void @llvm.lifetime.end.p0(i64 4, ptr %12) #13
  call void @llvm.lifetime.end.p0(i64 4, ptr %11) #13
  br label %111

111:                                              ; preds = %110, %24
  ret void
}

; Function Attrs: mustprogress uwtable
define void @_ZN3url17ParsePathInternalEPKtRKNS_9ComponentEPS2_S5_S5_(ptr noundef %0, ptr noundef nonnull align 4 dereferenceable(8) %1, ptr noundef %2, ptr noundef %3, ptr noundef %4) #0 {
  %6 = alloca ptr, align 8
  %7 = alloca ptr, align 8
  %8 = alloca ptr, align 8
  %9 = alloca ptr, align 8
  %10 = alloca ptr, align 8
  store ptr %0, ptr %6, align 8, !tbaa !38
  store ptr %1, ptr %7, align 8, !tbaa !12
  store ptr %2, ptr %8, align 8, !tbaa !12
  store ptr %3, ptr %9, align 8, !tbaa !12
  store ptr %4, ptr %10, align 8, !tbaa !12
  %11 = load ptr, ptr %6, align 8, !tbaa !38
  %12 = load ptr, ptr %7, align 8, !tbaa !12
  %13 = load ptr, ptr %8, align 8, !tbaa !12
  %14 = load ptr, ptr %9, align 8, !tbaa !12
  %15 = load ptr, ptr %10, align 8, !tbaa !12
  call void @_ZN3url12_GLOBAL__N_19ParsePathItEEvPKT_RKNS_9ComponentEPS5_S8_S8_(ptr noundef %11, ptr noundef nonnull align 4 dereferenceable(8) %12, ptr noundef %13, ptr noundef %14, ptr noundef %15)
  ret void
}