; Function Attrs: mustprogress nofree norecurse nosync nounwind memory(argmem: readwrite) uwtable
define void @_ZN3url17ParsePathInternalEPKtRKNS_9ComponentEPS2_S5_S5_(ptr noundef readonly captures(none) %0, ptr noundef nonnull readonly align 4 captures(none) dereferenceable(8) %1, ptr noundef writeonly captures(none) %2, ptr noundef writeonly captures(none) %3, ptr noundef writeonly captures(none) %4) local_unnamed_addr #6 {
  %6 = getelementptr inbounds nuw i8, ptr %1, i64 4
  %7 = load i32, ptr %6, align 4, !tbaa !8
  %8 = icmp eq i32 %7, -1
  br i1 %8, label %9, label %13

9:                                                ; preds = %5
  store i32 0, ptr %2, align 4, !tbaa !3
  %10 = getelementptr inbounds nuw i8, ptr %2, i64 4
  store i32 -1, ptr %10, align 4, !tbaa !8
  store i32 0, ptr %3, align 4, !tbaa !3
  %11 = getelementptr inbounds nuw i8, ptr %3, i64 4
  store i32 -1, ptr %11, align 4, !tbaa !8
  store i32 0, ptr %4, align 4, !tbaa !3
  %12 = getelementptr inbounds nuw i8, ptr %4, i64 4
  store i32 -1, ptr %12, align 4, !tbaa !8
  br label %_ZN3url12_GLOBAL__N_19ParsePathItEEvPKT_RKNS_9ComponentEPS5_S8_S8_.exit

13:                                               ; preds = %5
  %14 = load i32, ptr %1, align 4, !tbaa !3
  %15 = add nsw i32 %14, %7
  %16 = icmp sgt i32 %7, 0
  br i1 %16, label %.lr.ph.preheader.i, label %._crit_edge.thread.i

.lr.ph.preheader.i:                               ; preds = %13
  %17 = sext i32 %14 to i64
  %18 = sext i32 %15 to i64
  br label %.lr.ph.i

._crit_edge.i:                                    ; preds = %29
  %19 = icmp sgt i32 %.139.i, -1
  br i1 %19, label %31, label %._crit_edge.thread.i

.lr.ph.i:                                         ; preds = %29, %.lr.ph.preheader.i
  %indvars.iv.i = phi i64 [ %17, %.lr.ph.preheader.i ], [ %indvars.iv.next.i, %29 ]
  %.058.i = phi i32 [ -1, %.lr.ph.preheader.i ], [ %.1.i, %29 ]
  %.03857.i = phi i32 [ -1, %.lr.ph.preheader.i ], [ %.139.i, %29 ]
  %20 = getelementptr inbounds i16, ptr %0, i64 %indvars.iv.i
  %21 = load i16, ptr %20, align 2, !tbaa !25
  switch i16 %21, label %29 [
    i16 63, label %22
    i16 35, label %26
  ]

22:                                               ; preds = %.lr.ph.i
  %23 = icmp slt i32 %.03857.i, 0
  %24 = icmp slt i32 %.058.i, 0
  %or.cond.i = select i1 %23, i1 %24, i1 false
  %25 = trunc nsw i64 %indvars.iv.i to i32
  %spec.select.i = select i1 %or.cond.i, i32 %25, i32 %.058.i
  br label %29

26:                                               ; preds = %.lr.ph.i
  %27 = icmp slt i32 %.03857.i, 0
  %28 = trunc nsw i64 %indvars.iv.i to i32
  %spec.select47.i = select i1 %27, i32 %28, i32 %.03857.i
  br label %29

29:                                               ; preds = %26, %22, %.lr.ph.i
  %.139.i = phi i32 [ %.03857.i, %.lr.ph.i ], [ %.03857.i, %22 ], [ %spec.select47.i, %26 ]
  %.1.i = phi i32 [ %.058.i, %.lr.ph.i ], [ %spec.select.i, %22 ], [ %.058.i, %26 ]
  %indvars.iv.next.i = add nsw i64 %indvars.iv.i, 1
  %30 = icmp slt i64 %indvars.iv.next.i, %18
  br i1 %30, label %.lr.ph.i, label %._crit_edge.i, !llvm.loop !50

31:                                               ; preds = %._crit_edge.i
  %32 = add nuw nsw i32 %.139.i, 1
  %33 = sub nsw i32 %15, %32
  %.sroa.2.0.insert.ext.i.i = zext i32 %33 to i64
  %.sroa.2.0.insert.shift.i.i = shl nuw i64 %.sroa.2.0.insert.ext.i.i, 32
  %.sroa.0.0.insert.ext.i.i = zext nneg i32 %32 to i64
  %.sroa.0.0.insert.insert.i.i = or disjoint i64 %.sroa.2.0.insert.shift.i.i, %.sroa.0.0.insert.ext.i.i
  store i64 %.sroa.0.0.insert.insert.i.i, ptr %4, align 4
  br label %35

._crit_edge.thread.i:                             ; preds = %._crit_edge.i, %13
  %.0.lcssa64.i = phi i32 [ %.1.i, %._crit_edge.i ], [ -1, %13 ]
  store i32 0, ptr %4, align 4, !tbaa !3
  %34 = getelementptr inbounds nuw i8, ptr %4, i64 4
  store i32 -1, ptr %34, align 4, !tbaa !8
  br label %35

35:                                               ; preds = %._crit_edge.thread.i, %31
  %.0.lcssa63.i = phi i32 [ %.1.i, %31 ], [ %.0.lcssa64.i, %._crit_edge.thread.i ]
  %.041.i = phi i32 [ %.139.i, %31 ], [ %15, %._crit_edge.thread.i ]
  %36 = icmp sgt i32 %.0.lcssa63.i, -1
  br i1 %36, label %37, label %40

37:                                               ; preds = %35
  %38 = add nuw nsw i32 %.0.lcssa63.i, 1
  %39 = sub nsw i32 %.041.i, %38
  %.sroa.2.0.insert.ext.i48.i = zext i32 %39 to i64
  %.sroa.2.0.insert.shift.i49.i = shl nuw i64 %.sroa.2.0.insert.ext.i48.i, 32
  %.sroa.0.0.insert.ext.i50.i = zext nneg i32 %38 to i64
  %.sroa.0.0.insert.insert.i51.i = or disjoint i64 %.sroa.2.0.insert.shift.i49.i, %.sroa.0.0.insert.ext.i50.i
  store i64 %.sroa.0.0.insert.insert.i51.i, ptr %3, align 4
  br label %42

40:                                               ; preds = %35
  store i32 0, ptr %3, align 4, !tbaa !3
  %41 = getelementptr inbounds nuw i8, ptr %3, i64 4
  store i32 -1, ptr %41, align 4, !tbaa !8
  br label %42

42:                                               ; preds = %40, %37
  %.143.i = phi i32 [ %.0.lcssa63.i, %37 ], [ %.041.i, %40 ]
  %43 = load i32, ptr %1, align 4, !tbaa !3
  %.not.i = icmp eq i32 %.143.i, %43
  br i1 %.not.i, label %46, label %44

44:                                               ; preds = %42
  %45 = sub nsw i32 %.143.i, %43
  %.sroa.2.0.insert.ext.i52.i = zext i32 %45 to i64
  %.sroa.2.0.insert.shift.i53.i = shl nuw i64 %.sroa.2.0.insert.ext.i52.i, 32
  %.sroa.0.0.insert.ext.i54.i = zext i32 %43 to i64
  %.sroa.0.0.insert.insert.i55.i = or disjoint i64 %.sroa.2.0.insert.shift.i53.i, %.sroa.0.0.insert.ext.i54.i
  store i64 %.sroa.0.0.insert.insert.i55.i, ptr %2, align 4
  br label %_ZN3url12_GLOBAL__N_19ParsePathItEEvPKT_RKNS_9ComponentEPS5_S8_S8_.exit

46:                                               ; preds = %42
  store i32 0, ptr %2, align 4, !tbaa !3
  %47 = getelementptr inbounds nuw i8, ptr %2, i64 4
  store i32 -1, ptr %47, align 4, !tbaa !8
  br label %_ZN3url12_GLOBAL__N_19ParsePathItEEvPKT_RKNS_9ComponentEPS5_S8_S8_.exit

_ZN3url12_GLOBAL__N_19ParsePathItEEvPKT_RKNS_9ComponentEPS5_S8_S8_.exit: ; preds = %9, %44, %46
  ret void
}